; Function Attrs: nounwind uwtable
define ptr @l_Lean_PersistentHashMap_forIn___rarg___lambda__2(ptr noundef %0, ptr noundef %1, ptr noundef %2, ptr noundef %3, ptr noundef %4, ptr noundef %5) #2 {
  %7 = getelementptr inbounds nuw i8, ptr %0, i64 8
  %8 = load ptr, ptr %7, align 8, !tbaa !9
  %9 = ptrtoint ptr %8 to i64
  %10 = and i64 %9, 1
  %.not = icmp eq i64 %10, 0
  br i1 %.not, label %11, label %lean_inc.exit23

11:                                               ; preds = %6
  %.val.i = load i32, ptr %8, align 4, !tbaa !4
  %12 = icmp sgt i32 %.val.i, 0
  br i1 %12, label %13, label %15, !prof !11

13:                                               ; preds = %11
  %14 = add nuw i32 %.val.i, 1
  store i32 %14, ptr %8, align 4, !tbaa !4
  br label %lean_inc.exit23

15:                                               ; preds = %11
  %.not.i28 = icmp eq i32 %.val.i, 0
  br i1 %.not.i28, label %lean_inc.exit23, label %16

16:                                               ; preds = %15
  tail call void @lean_inc_ref_cold(ptr noundef nonnull %8) #7
  br label %lean_inc.exit23

lean_inc.exit23:                                  ; preds = %16, %15, %13, %6
  %17 = ptrtoint ptr %0 to i64
  %18 = and i64 %17, 1
  %.not35 = icmp eq i64 %18, 0
  br i1 %.not35, label %19, label %lean_dec.exit21

19:                                               ; preds = %lean_inc.exit23
  %20 = load i32, ptr %0, align 4, !tbaa !4
  %21 = icmp sgt i32 %20, 1
  br i1 %21, label %22, label %24, !prof !11

22:                                               ; preds = %19
  %23 = add nsw i32 %20, -1
  store i32 %23, ptr %0, align 4, !tbaa !4
  br label %lean_dec.exit21

24:                                               ; preds = %19
  %.not.i = icmp eq i32 %20, 0
  br i1 %.not.i, label %lean_dec.exit21, label %25

25:                                               ; preds = %24
  tail call void @lean_dec_ref_cold(ptr noundef nonnull %0) #7
  br label %lean_dec.exit21

lean_dec.exit21:                                  ; preds = %25, %24, %22, %lean_inc.exit23
  %26 = getelementptr inbounds nuw i8, ptr %8, i64 8
  %27 = load ptr, ptr %26, align 8, !tbaa !9
  %28 = ptrtoint ptr %27 to i64
  %29 = and i64 %28, 1
  %.not36 = icmp eq i64 %29, 0
  br i1 %.not36, label %30, label %lean_inc.exit22

30:                                               ; preds = %lean_dec.exit21
  %.val.i29 = load i32, ptr %27, align 4, !tbaa !4
  %31 = icmp sgt i32 %.val.i29, 0
  br i1 %31, label %32, label %34, !prof !11

32:                                               ; preds = %30
  %33 = add nuw i32 %.val.i29, 1
  store i32 %33, ptr %27, align 4, !tbaa !4
  br label %lean_inc.exit22

34:                                               ; preds = %30
  %.not.i30 = icmp eq i32 %.val.i29, 0
  br i1 %.not.i30, label %lean_inc.exit22, label %35

35:                                               ; preds = %34
  tail call void @lean_inc_ref_cold(ptr noundef nonnull %27) #7
  br label %lean_inc.exit22

lean_inc.exit22:                                  ; preds = %35, %34, %32, %lean_dec.exit21
  br i1 %.not, label %36, label %lean_dec.exit20

36:                                               ; preds = %lean_inc.exit22
  %37 = load i32, ptr %8, align 4, !tbaa !4
  %38 = icmp sgt i32 %37, 1
  br i1 %38, label %39, label %41, !prof !11

39:                                               ; preds = %36
  %40 = add nsw i32 %37, -1
  store i32 %40, ptr %8, align 4, !tbaa !4
  br label %lean_dec.exit20

41:                                               ; preds = %36
  %.not.i24 = icmp eq i32 %37, 0
  br i1 %.not.i24, label %lean_dec.exit20, label %42

42:                                               ; preds = %41
  tail call void @lean_dec_ref_cold(ptr noundef nonnull %8) #7
  br label %lean_dec.exit20

lean_dec.exit20:                                  ; preds = %42, %41, %39, %lean_inc.exit22
  %43 = getelementptr inbounds nuw i8, ptr %27, i64 8
  %44 = load ptr, ptr %43, align 8, !tbaa !9
  %45 = ptrtoint ptr %44 to i64
  %46 = and i64 %45, 1
  %.not37 = icmp eq i64 %46, 0
  br i1 %.not37, label %47, label %lean_inc.exit

47:                                               ; preds = %lean_dec.exit20
  %.val.i32 = load i32, ptr %44, align 4, !tbaa !4
  %48 = icmp sgt i32 %.val.i32, 0
  br i1 %48, label %49, label %51, !prof !11

49:                                               ; preds = %47
  %50 = add nuw i32 %.val.i32, 1
  store i32 %50, ptr %44, align 4, !tbaa !4
  br label %lean_inc.exit

51:                                               ; preds = %47
  %.not.i33 = icmp eq i32 %.val.i32, 0
  br i1 %.not.i33, label %lean_inc.exit, label %52

52:                                               ; preds = %51
  tail call void @lean_inc_ref_cold(ptr noundef nonnull %44) #7
  br label %lean_inc.exit

lean_inc.exit:                                    ; preds = %52, %51, %49, %lean_dec.exit20
  br i1 %.not36, label %53, label %lean_dec.exit

53:                                               ; preds = %lean_inc.exit
  %54 = load i32, ptr %27, align 4, !tbaa !4
  %55 = icmp sgt i32 %54, 1
  br i1 %55, label %56, label %58, !prof !11

56:                                               ; preds = %53
  %57 = add nsw i32 %54, -1
  store i32 %57, ptr %27, align 4, !tbaa !4
  br label %lean_dec.exit

58:                                               ; preds = %53
  %.not.i26 = icmp eq i32 %54, 0
  br i1 %.not.i26, label %lean_dec.exit, label %59

59:                                               ; preds = %58
  tail call void @lean_dec_ref_cold(ptr noundef nonnull %27) #7
  br label %lean_dec.exit

lean_dec.exit:                                    ; preds = %59, %58, %56, %lean_inc.exit
  tail call void @lean_inc_heartbeat() #7
  %60 = tail call noalias ptr @mi_malloc_small(i64 noundef 24) #7
  %61 = icmp eq ptr %60, null
  br i1 %61, label %62, label %lean_alloc_ctor.exit

62:                                               ; preds = %lean_dec.exit
  tail call void @lean_internal_panic_out_of_memory() #8
  unreachable

lean_alloc_ctor.exit:                             ; preds = %lean_dec.exit
  %63 = getelementptr inbounds nuw i8, ptr %60, i64 4
  store i32 1, ptr %60, align 4, !tbaa !4
  store i32 131096, ptr %63, align 4
  %64 = getelementptr inbounds nuw i8, ptr %60, i64 8
  store ptr %4, ptr %64, align 8, !tbaa !9
  %65 = getelementptr inbounds nuw i8, ptr %60, i64 16
  store ptr %5, ptr %65, align 8, !tbaa !9
  %66 = tail call ptr @lean_apply_2(ptr noundef %1, ptr noundef nonnull %60, ptr noundef %3) #7
  %67 = tail call ptr @lean_apply_4(ptr noundef %44, ptr noundef nonnull inttoptr (i64 1 to ptr), ptr noundef nonnull inttoptr (i64 1 to ptr), ptr noundef %2, ptr noundef %66) #7
  ret ptr %67
}